; ModuleID = 'source-C-CXX/2/328.c'
source_filename = "source-C-CXX/2/328.c"
target datalayout = "e-m:e-p270:32:32-p271:32:32-p272:64:64-i64:64-f80:128-n8:16:32:64-S128"
target triple = "x86_64-pc-linux-gnu"

@.str = private unnamed_addr constant [5 x i8] c"%d%d\00", align 1
@.str.1 = private unnamed_addr constant [3 x i8] c"%d\00", align 1
@.str.2 = private unnamed_addr constant [4 x i8] c"yes\00", align 1
@.str.3 = private unnamed_addr constant [3 x i8] c"no\00", align 1

; Function Attrs: nofree nounwind sspstrong uwtable
define dso_local i32 @main() local_unnamed_addr #0 {
  %1 = alloca i32, align 4
  %2 = alloca i32, align 4
  %3 = alloca [1000 x i32], align 16
  %4 = bitcast i32* %1 to i8*
  call void @llvm.lifetime.start.p0i8(i64 4, i8* nonnull %4) #3
  %5 = bitcast i32* %2 to i8*
  call void @llvm.lifetime.start.p0i8(i64 4, i8* nonnull %5) #3
  %6 = bitcast [1000 x i32]* %3 to i8*
  call void @llvm.lifetime.start.p0i8(i64 4000, i8* nonnull %6) #3
  %7 = call i32 (i8*, ...) @__isoc99_scanf(i8* getelementptr inbounds ([5 x i8], [5 x i8]* @.str, i64 0, i64 0), i32* nonnull %1, i32* nonnull %2)
  %8 = load i32, i32* %1, align 4, !tbaa !5
  %9 = icmp sgt i32 %8, 0
  br i1 %9, label %12, label %64

10:                                               ; preds = %12
  %11 = icmp sgt i32 %17, 0
  br i1 %11, label %20, label %64

12:                                               ; preds = %0, %12
  %13 = phi i64 [ %16, %12 ], [ 0, %0 ]
  %14 = getelementptr inbounds [1000 x i32], [1000 x i32]* %3, i64 0, i64 %13
  %15 = call i32 (i8*, ...) @__isoc99_scanf(i8* getelementptr inbounds ([3 x i8], [3 x i8]* @.str.1, i64 0, i64 0), i32* nonnull %14)
  %16 = add nuw nsw i64 %13, 1
  %17 = load i32, i32* %1, align 4, !tbaa !5
  %18 = sext i32 %17 to i64
  %19 = icmp slt i64 %16, %18
  br i1 %19, label %12, label %10, !llvm.loop !9

20:                                               ; preds = %10, %60
  %21 = phi i32 [ %62, %60 ], [ %17, %10 ]
  %22 = phi i32 [ %61, %60 ], [ 0, %10 ]
  %23 = add nsw i32 %22, 1
  %24 = icmp slt i32 %23, %21
  br i1 %24, label %25, label %60

25:                                               ; preds = %20
  %26 = sext i32 %23 to i64
  %27 = sext i32 %22 to i64
  %28 = getelementptr inbounds [1000 x i32], [1000 x i32]* %3, i64 0, i64 %27
  br label %29

29:                                               ; preds = %25, %50
  %30 = phi i32 [ %21, %25 ], [ %51, %50 ]
  %31 = phi i32 [ %21, %25 ], [ %52, %50 ]
  %32 = phi i64 [ %26, %25 ], [ %53, %50 ]
  %33 = load i32, i32* %28, align 4, !tbaa !5
  %34 = getelementptr inbounds [1000 x i32], [1000 x i32]* %3, i64 0, i64 %32
  %35 = load i32, i32* %34, align 4, !tbaa !5
  %36 = add nsw i32 %35, %33
  %37 = load i32, i32* %2, align 4, !tbaa !5
  %38 = icmp eq i32 %36, %37
  br i1 %38, label %39, label %42

39:                                               ; preds = %29
  %40 = call i32 (i8*, ...) @printf(i8* nonnull dereferenceable(1) getelementptr inbounds ([4 x i8], [4 x i8]* @.str.2, i64 0, i64 0))
  %41 = load i32, i32* %1, align 4, !tbaa !5
  br label %56

42:                                               ; preds = %29
  %43 = icmp eq i32 %22, %31
  br i1 %43, label %56, label %44

44:                                               ; preds = %42
  %45 = add nsw i32 %31, -2
  %46 = icmp eq i32 %22, %45
  br i1 %46, label %47, label %50

47:                                               ; preds = %44
  %48 = call i32 (i8*, ...) @printf(i8* nonnull dereferenceable(1) getelementptr inbounds ([3 x i8], [3 x i8]* @.str.3, i64 0, i64 0))
  %49 = load i32, i32* %1, align 4, !tbaa !5
  br label %50

50:                                               ; preds = %44, %47
  %51 = phi i32 [ %30, %44 ], [ %49, %47 ]
  %52 = phi i32 [ %31, %44 ], [ %49, %47 ]
  %53 = add nsw i64 %32, 1
  %54 = sext i32 %52 to i64
  %55 = icmp slt i64 %53, %54
  br i1 %55, label %29, label %56, !llvm.loop !11

56:                                               ; preds = %50, %42, %39
  %57 = phi i32 [ %41, %39 ], [ %22, %42 ], [ %22, %50 ]
  %58 = phi i32 [ %41, %39 ], [ %51, %50 ], [ %30, %42 ]
  %59 = add nsw i32 %57, 1
  br label %60

60:                                               ; preds = %56, %20
  %61 = phi i32 [ %59, %56 ], [ %23, %20 ]
  %62 = phi i32 [ %58, %56 ], [ %21, %20 ]
  %63 = icmp slt i32 %61, %62
  br i1 %63, label %20, label %64, !llvm.loop !12

64:                                               ; preds = %60, %0, %10
  call void @llvm.lifetime.end.p0i8(i64 4000, i8* nonnull %6) #3
  call void @llvm.lifetime.end.p0i8(i64 4, i8* nonnull %5) #3
  call void @llvm.lifetime.end.p0i8(i64 4, i8* nonnull %4) #3
  ret i32 0
}

; Function Attrs: argmemonly mustprogress nofree nosync nounwind willreturn
declare void @llvm.lifetime.start.p0i8(i64 immarg, i8* nocapture) #1

; Function Attrs: nofree nounwind
declare noundef i32 @__isoc99_scanf(i8* nocapture noundef readonly, ...) local_unnamed_addr #2

; Function Attrs: nofree nounwind
declare noundef i32 @printf(i8* nocapture noundef readonly, ...) local_unnamed_addr #2

; Function Attrs: argmemonly mustprogress nofree nosync nounwind willreturn
declare void @llvm.lifetime.end.p0i8(i64 immarg, i8* nocapture) #1


!llvm.module.flags = !{!0, !1, !2, !3}
!llvm.ident = !{!4}

!0 = !{i32 1, !"wchar_size", i32 4}
!1 = !{i32 7, !"PIC Level", i32 2}
!2 = !{i32 7, !"PIE Level", i32 2}
!3 = !{i32 7, !"uwtable", i32 1}
!4 = !{!"clang version 13.0.0"}
!5 = !{!6, !6, i64 0}
!6 = !{!"int", !7, i64 0}
!7 = !{!"omnipotent char", !8, i64 0}
!8 = !{!"Simple C/C++ TBAA"}
!9 = distinct !{!9, !10}
!10 = !{!"llvm.loop.mustprogress"}
!11 = distinct !{!11, !10}
!12 = distinct !{!12, !10}
